; Function Attrs: mustprogress nounwind uwtable
define dso_local void @_ZNK4llvm17PseudoSourceValue11printCustomERNS_11raw_ostreamE(ptr nocapture noundef nonnull readonly align 8 dereferenceable(16) %0, ptr noundef nonnull align 8 dereferenceable(48) %1) unnamed_addr #0 align 2 {
  %3 = getelementptr inbounds nuw i8, ptr %0, i64 8
  %4 = load i32, ptr %3, align 8
  %5 = icmp ult i32 %4, 7
  br i1 %5, label %_ZN4llvm9StringRefC2EPKc.exit.i, label %24

_ZN4llvm9StringRefC2EPKc.exit.i:                  ; preds = %2
  %6 = zext nneg i32 %4 to i64
  %7 = getelementptr inbounds [7 x ptr], ptr @_ZL8PSVNames, i64 0, i64 %6
  %8 = load ptr, ptr %7, align 8
  %9 = tail call noundef i64 @strlen(ptr noundef nonnull dereferenceable(1) %8) #16
  %10 = getelementptr inbounds nuw i8, ptr %1, i64 24
  %11 = load ptr, ptr %10, align 8
  %12 = getelementptr inbounds nuw i8, ptr %1, i64 32
  %13 = load ptr, ptr %12, align 8
  %14 = ptrtoint ptr %11 to i64
  %15 = ptrtoint ptr %13 to i64
  %16 = sub i64 %14, %15
  %17 = icmp ugt i64 %9, %16
  br i1 %17, label %18, label %20

18:                                               ; preds = %_ZN4llvm9StringRefC2EPKc.exit.i
  %19 = tail call noundef nonnull align 8 dereferenceable(48) ptr @_ZN4llvm11raw_ostream5writeEPKcm(ptr noundef nonnull align 8 dereferenceable(48) %1, ptr noundef nonnull %8, i64 noundef %9) #16
  br label %_ZN4llvm11raw_ostreamlsEPKc.exit

20:                                               ; preds = %_ZN4llvm9StringRefC2EPKc.exit.i
  %.not.i2.i = icmp eq i64 %9, 0
  br i1 %.not.i2.i, label %_ZN4llvm11raw_ostreamlsEPKc.exit, label %21

21:                                               ; preds = %20
  tail call void @llvm.memcpy.p0.p0.i64(ptr align 1 %13, ptr nonnull align 1 %8, i64 %9, i1 false)
  %22 = load ptr, ptr %12, align 8
  %23 = getelementptr inbounds i8, ptr %22, i64 %9
  store ptr %23, ptr %12, align 8
  br label %_ZN4llvm11raw_ostreamlsEPKc.exit

24:                                               ; preds = %2
  %25 = getelementptr inbounds nuw i8, ptr %1, i64 24
  %26 = load ptr, ptr %25, align 8
  %27 = getelementptr inbounds nuw i8, ptr %1, i64 32
  %28 = load ptr, ptr %27, align 8
  %29 = ptrtoint ptr %26 to i64
  %30 = ptrtoint ptr %28 to i64
  %31 = sub i64 %29, %30
  %32 = icmp ult i64 %31, 12
  br i1 %32, label %33, label %35

33:                                               ; preds = %24
  %34 = tail call noundef nonnull align 8 dereferenceable(48) ptr @_ZN4llvm11raw_ostream5writeEPKcm(ptr noundef nonnull align 8 dereferenceable(48) %1, ptr noundef nonnull @.str, i64 noundef 12) #16
  br label %_ZN4llvm11raw_ostreamlsEPKc.exit6

35:                                               ; preds = %24
  tail call void @llvm.memcpy.p0.p0.i64(ptr noundef nonnull align 1 dereferenceable(12) %28, ptr noundef nonnull align 1 dereferenceable(12) @.str, i64 12, i1 false)
  %36 = load ptr, ptr %27, align 8
  %37 = getelementptr inbounds i8, ptr %36, i64 12
  store ptr %37, ptr %27, align 8
  br label %_ZN4llvm11raw_ostreamlsEPKc.exit6

_ZN4llvm11raw_ostreamlsEPKc.exit6:                ; preds = %33, %35
  %.0.i.i5 = phi ptr [ %34, %33 ], [ %1, %35 ]
  %38 = load i32, ptr %3, align 8
  %39 = zext i32 %38 to i64
  %40 = tail call noundef nonnull align 8 dereferenceable(48) ptr @_ZN4llvm11raw_ostreamlsEm(ptr noundef nonnull align 8 dereferenceable(48) %.0.i.i5, i64 noundef %39) #16
  br label %_ZN4llvm11raw_ostreamlsEPKc.exit

_ZN4llvm11raw_ostreamlsEPKc.exit:                 ; preds = %21, %20, %18, %_ZN4llvm11raw_ostreamlsEPKc.exit6
  ret void
}